target datalayout = "e-m:e-p270:32:32-p271:32:32-p272:64:64-i64:64-i128:128-f80:128-n8:16:32:64-S128"
target triple = "x86_64-pc-linux-gnu"

%"class.std::__cxx11::basic_string" = type { %"struct.std::__cxx11::basic_string<char>::_Alloc_hider", i64, %union.anon }
%"struct.std::__cxx11::basic_string<char>::_Alloc_hider" = type { ptr }
%union.anon = type { i64, [8 x i8] }
%"class.std::__shared_count" = type { ptr }
%"class.std::shared_ptr" = type { %"class.std::__shared_ptr" }
%"class.std::__shared_ptr" = type { ptr, %"class.std::__shared_count" }
%"struct.arrow::Status::State" = type { i8, i8, %"class.std::__cxx11::basic_string", %"class.std::shared_ptr" }
%"class.arrow::Status" = type { ptr }

@__dso_handle = external hidden global i8
@_ZZNK5arrow6Status6detailEvE9no_detail = internal global { ptr, %"class.std::__shared_count" } zeroinitializer, align 8
@_ZGVZNK5arrow6Status6detailEvE9no_detail = internal global i64 0, align 8

; Function Attrs: mustprogress nounwind uwtable
define noundef nonnull align 8 dereferenceable(16) ptr @_ZNK5arrow6Status6detailEv(ptr noundef nonnull align 8 dereferenceable(8) %0) #5 align 2 {
  %2 = alloca ptr, align 8
  store ptr %0, ptr %2, align 8, !tbaa !3
  %3 = load ptr, ptr %2, align 8
  %4 = load atomic i8, ptr @_ZGVZNK5arrow6Status6detailEvE9no_detail acquire, align 8
  %5 = icmp eq i8 %4, 0
  br i1 %5, label %6, label %11, !prof !53

6:                                                ; preds = %1
  %7 = call i32 @__cxa_guard_acquire(ptr @_ZGVZNK5arrow6Status6detailEvE9no_detail) #3
  %8 = icmp ne i32 %7, 0
  br i1 %8, label %9, label %11

9:                                                ; preds = %6
  %10 = call i32 @__cxa_atexit(ptr @_ZNSt12__shared_ptrIN5arrow12StatusDetailELN9__gnu_cxx12_Lock_policyE2EED2Ev, ptr @_ZZNK5arrow6Status6detailEvE9no_detail, ptr @__dso_handle) #3
  call void @__cxa_guard_release(ptr @_ZGVZNK5arrow6Status6detailEvE9no_detail) #3
  br label %11

11:                                               ; preds = %9, %6, %1
  %12 = getelementptr inbounds nuw %"class.arrow::Status", ptr %3, i32 0, i32 0
  %13 = load ptr, ptr %12, align 8, !tbaa !29
  %14 = icmp ne ptr %13, null
  br i1 %14, label %15, label %19

15:                                               ; preds = %11
  %16 = getelementptr inbounds nuw %"class.arrow::Status", ptr %3, i32 0, i32 0
  %17 = load ptr, ptr %16, align 8, !tbaa !29
  %18 = getelementptr inbounds nuw %"struct.arrow::Status::State", ptr %17, i32 0, i32 3
  br label %20

19:                                               ; preds = %11
  br label %20

20:                                               ; preds = %19, %15
  %21 = phi ptr [ %18, %15 ], [ @_ZZNK5arrow6Status6detailEvE9no_detail, %19 ]
  ret ptr %21
}