; Function Attrs: mustprogress nofree nounwind uwtable
define noundef nonnull align 8 dereferenceable(16) ptr @_ZNK5arrow6Status6detailEv(ptr noundef nonnull readonly align 8 captures(none) dereferenceable(8) %0) local_unnamed_addr #8 align 2 {
  %2 = load atomic i8, ptr @_ZGVZNK5arrow6Status6detailEvE9no_detail acquire, align 8
  %3 = icmp eq i8 %2, 0
  br i1 %3, label %4, label %8, !prof !44

4:                                                ; preds = %1
  %5 = tail call i32 @__cxa_guard_acquire(ptr nonnull @_ZGVZNK5arrow6Status6detailEvE9no_detail) #19
  %.not = icmp eq i32 %5, 0
  br i1 %.not, label %8, label %6

6:                                                ; preds = %4
  %7 = tail call i32 @__cxa_atexit(ptr nonnull @_ZNSt12__shared_ptrIN5arrow12StatusDetailELN9__gnu_cxx12_Lock_policyE2EED2Ev, ptr nonnull @_ZZNK5arrow6Status6detailEvE9no_detail, ptr nonnull @__dso_handle) #19
  tail call void @__cxa_guard_release(ptr nonnull @_ZGVZNK5arrow6Status6detailEvE9no_detail) #19
  br label %8

8:                                                ; preds = %6, %4, %1
  %9 = load ptr, ptr %0, align 8, !tbaa !35
  %.not1 = icmp eq ptr %9, null
  %10 = getelementptr inbounds nuw i8, ptr %9, i64 40
  %spec.select = select i1 %.not1, ptr @_ZZNK5arrow6Status6detailEvE9no_detail, ptr %10
  ret ptr %spec.select
}